target datalayout = "e-m:e-p270:32:32-p271:32:32-p272:64:64-i64:64-i128:128-f80:128-n8:16:32:64-S128"
target triple = "x86_64-unknown-linux-gnu"

%"class.google::protobuf::UnknownFieldSet" = type { %"class.std::vector" }
%"class.std::vector" = type { %"struct.std::_Vector_base" }
%"struct.std::_Vector_base" = type { %"struct.std::_Vector_base<google::protobuf::UnknownField, std::allocator<google::protobuf::UnknownField>>::_Vector_impl" }
%"struct.std::_Vector_base<google::protobuf::UnknownField, std::allocator<google::protobuf::UnknownField>>::_Vector_impl" = type { %"struct.std::_Vector_base<google::protobuf::UnknownField, std::allocator<google::protobuf::UnknownField>>::_Vector_impl_data" }
%"struct.std::_Vector_base<google::protobuf::UnknownField, std::allocator<google::protobuf::UnknownField>>::_Vector_impl_data" = type { ptr, ptr, ptr }
%"class.google::protobuf::UnknownField" = type { i32, i32, %union.anon }
%union.anon = type { i64 }

; Function Attrs: noreturn nounwind uwtable
define linkonce_odr hidden void @__clang_call_terminate(ptr noundef %0) #10 comdat {
  %2 = call ptr @__cxa_begin_catch(ptr %0) #3
  call void @_ZSt9terminatev() #22
  unreachable
}

; Function Attrs: mustprogress nounwind uwtable
define linkonce_odr hidden noundef i32 @_ZN4absl12lts_2023080211countl_zeroImEENSt9enable_ifIXsr3std11is_unsignedIT_EE5valueEiE4typeES3_(i64 noundef %x) #5 comdat personality ptr @__gxx_personality_v0 {
entry:
  %x.addr.i1 = alloca i64, align 8
  %x.addr.i = alloca i64, align 8
  %x.addr = alloca i64, align 8
  store i64 %x, ptr %x.addr, align 8
  %0 = load i64, ptr %x.addr, align 8
  store i64 %0, ptr %x.addr.i, align 8
  %1 = load i64, ptr %x.addr.i, align 8
  store i64 %1, ptr %x.addr.i1, align 8
  %2 = load i64, ptr %x.addr.i1, align 8
  %cmp.i = icmp eq i64 %2, 0
  br i1 %cmp.i, label %cond.true.i, label %cond.false.i

cond.true.i:                                      ; preds = %entry
  br label %_ZN4absl12lts_2023080216numeric_internal20CountLeadingZeroes64Em.exit

cond.false.i:                                     ; preds = %entry
  %3 = load i64, ptr %x.addr.i1, align 8
  %4 = call i64 @llvm.ctlz.i64(i64 %3, i1 true)
  %cast.i = trunc i64 %4 to i32
  br label %_ZN4absl12lts_2023080216numeric_internal20CountLeadingZeroes64Em.exit

_ZN4absl12lts_2023080216numeric_internal20CountLeadingZeroes64Em.exit: ; preds = %cond.false.i, %cond.true.i
  %cond.i = phi i32 [ 64, %cond.true.i ], [ %cast.i, %cond.false.i ]
  br label %invoke.cont

invoke.cont:                                      ; preds = %_ZN4absl12lts_2023080216numeric_internal20CountLeadingZeroes64Em.exit
  ret i32 %cond.i

terminate.lpad:                                   ; No predecessors!
  %5 = landingpad { ptr, i32 }
          catch ptr null
  %6 = extractvalue { ptr, i32 } %5, 0
  call void @__clang_call_terminate(ptr %6) #22
  unreachable
}

; Function Attrs: mustprogress nounwind uwtable
define linkonce_odr hidden noundef i32 @_ZN4absl12lts_2023080211countl_zeroIjEENSt9enable_ifIXsr3std11is_unsignedIT_EE5valueEiE4typeES3_(i32 noundef %x) #5 comdat personality ptr @__gxx_personality_v0 {
entry:
  %x.addr.i1 = alloca i32, align 4
  %x.addr.i = alloca i32, align 4
  %x.addr = alloca i32, align 4
  store i32 %x, ptr %x.addr, align 4
  %0 = load i32, ptr %x.addr, align 4
  store i32 %0, ptr %x.addr.i, align 4
  %1 = load i32, ptr %x.addr.i, align 4
  store i32 %1, ptr %x.addr.i1, align 4
  %2 = load i32, ptr %x.addr.i1, align 4
  %cmp.i = icmp eq i32 %2, 0
  br i1 %cmp.i, label %cond.true.i, label %cond.false.i

cond.true.i:                                      ; preds = %entry
  br label %_ZN4absl12lts_2023080216numeric_internal20CountLeadingZeroes32Ej.exit

cond.false.i:                                     ; preds = %entry
  %3 = load i32, ptr %x.addr.i1, align 4
  %4 = call i32 @llvm.ctlz.i32(i32 %3, i1 true)
  br label %_ZN4absl12lts_2023080216numeric_internal20CountLeadingZeroes32Ej.exit

_ZN4absl12lts_2023080216numeric_internal20CountLeadingZeroes32Ej.exit: ; preds = %cond.false.i, %cond.true.i
  %cond.i = phi i32 [ 32, %cond.true.i ], [ %4, %cond.false.i ]
  br label %invoke.cont

invoke.cont:                                      ; preds = %_ZN4absl12lts_2023080216numeric_internal20CountLeadingZeroes32Ej.exit
  ret i32 %cond.i

terminate.lpad:                                   ; No predecessors!
  %5 = landingpad { ptr, i32 }
          catch ptr null
  %6 = extractvalue { ptr, i32 } %5, 0
  call void @__clang_call_terminate(ptr %6) #22
  unreachable
}

; Function Attrs: mustprogress nounwind uwtable
define linkonce_odr hidden noundef nonnull align 8 dereferenceable(16) ptr @_ZNKSt6vectorIN6google8protobuf12UnknownFieldESaIS2_EEixEm(ptr noundef nonnull align 8 dereferenceable(24) %this, i64 noundef %__n) #5 comdat align 2 {
entry:
  %this.addr = alloca ptr, align 8
  %__n.addr = alloca i64, align 8
  store ptr %this, ptr %this.addr, align 8
  store i64 %__n, ptr %__n.addr, align 8
  %this1 = load ptr, ptr %this.addr, align 8
  %_M_impl = getelementptr inbounds %"struct.std::_Vector_base", ptr %this1, i32 0, i32 0
  %_M_start = getelementptr inbounds %"struct.std::_Vector_base<google::protobuf::UnknownField, std::allocator<google::protobuf::UnknownField>>::_Vector_impl_data", ptr %_M_impl, i32 0, i32 0
  %0 = load ptr, ptr %_M_start, align 8
  %1 = load i64, ptr %__n.addr, align 8
  %add.ptr = getelementptr inbounds %"class.google::protobuf::UnknownField", ptr %0, i64 %1
  ret ptr %add.ptr
}

; Function Attrs: mustprogress nounwind uwtable
define linkonce_odr hidden noundef i64 @_ZNKSt6vectorIN6google8protobuf12UnknownFieldESaIS2_EE4sizeEv(ptr noundef nonnull align 8 dereferenceable(24) %this) #5 comdat align 2 {
entry:
  %this.addr = alloca ptr, align 8
  store ptr %this, ptr %this.addr, align 8
  %this1 = load ptr, ptr %this.addr, align 8
  %_M_impl = getelementptr inbounds %"struct.std::_Vector_base", ptr %this1, i32 0, i32 0
  %_M_finish = getelementptr inbounds %"struct.std::_Vector_base<google::protobuf::UnknownField, std::allocator<google::protobuf::UnknownField>>::_Vector_impl_data", ptr %_M_impl, i32 0, i32 1
  %0 = load ptr, ptr %_M_finish, align 8
  %_M_impl2 = getelementptr inbounds %"struct.std::_Vector_base", ptr %this1, i32 0, i32 0
  %_M_start = getelementptr inbounds %"struct.std::_Vector_base<google::protobuf::UnknownField, std::allocator<google::protobuf::UnknownField>>::_Vector_impl_data", ptr %_M_impl2, i32 0, i32 0
  %1 = load ptr, ptr %_M_start, align 8
  %sub.ptr.lhs.cast = ptrtoint ptr %0 to i64
  %sub.ptr.rhs.cast = ptrtoint ptr %1 to i64
  %sub.ptr.sub = sub i64 %sub.ptr.lhs.cast, %sub.ptr.rhs.cast
  %sub.ptr.div = sdiv exact i64 %sub.ptr.sub, 16
  ret i64 %sub.ptr.div
}

; Function Attrs: mustprogress nounwind uwtable
define linkonce_odr hidden noundef nonnull align 8 dereferenceable(24) ptr @_ZNK6google8protobuf12UnknownField5groupEv(ptr noundef nonnull align 8 dereferenceable(16) %this) #5 comdat align 2 {
entry:
  %this.addr = alloca ptr, align 8
  store ptr %this, ptr %this.addr, align 8
  %this1 = load ptr, ptr %this.addr, align 8
  %data_ = getelementptr inbounds %"class.google::protobuf::UnknownField", ptr %this1, i32 0, i32 2
  %0 = load ptr, ptr %data_, align 8
  ret ptr %0
}

; Function Attrs: mustprogress nounwind uwtable
define linkonce_odr hidden noundef nonnull align 8 dereferenceable(32) ptr @_ZNK6google8protobuf12UnknownField16length_delimitedB5cxx11Ev(ptr noundef nonnull align 8 dereferenceable(16) %this) #5 comdat align 2 {
entry:
  %this.addr = alloca ptr, align 8
  store ptr %this, ptr %this.addr, align 8
  %this1 = load ptr, ptr %this.addr, align 8
  %data_ = getelementptr inbounds %"class.google::protobuf::UnknownField", ptr %this1, i32 0, i32 2
  %0 = load ptr, ptr %data_, align 8
  ret ptr %0
}

; Function Attrs: mustprogress nounwind uwtable
define linkonce_odr hidden noundef i64 @_ZN6google8protobuf2io17CodedOutputStream12VarintSize64Em(i64 noundef %value) #5 comdat align 2 {
entry:
  %value.addr = alloca i64, align 8
  %log2value = alloca i32, align 4
  store i64 %value, ptr %value.addr, align 8
  %0 = load i64, ptr %value.addr, align 8
  %or = or i64 %0, 1
  %call = call noundef i32 @_ZN4absl12lts_2023080211countl_zeroImEENSt9enable_ifIXsr3std11is_unsignedIT_EE5valueEiE4typeES3_(i64 noundef %or) #3
  %sub = sub nsw i32 63, %call
  store i32 %sub, ptr %log2value, align 4
  %1 = load i32, ptr %log2value, align 4
  %mul = mul i32 %1, 9
  %add = add i32 %mul, 73
  %div = udiv i32 %add, 64
  %conv = zext i32 %div to i64
  ret i64 %conv
}

; Function Attrs: mustprogress nounwind uwtable
define linkonce_odr hidden noundef i64 @_ZNK6google8protobuf12UnknownField6varintEv(ptr noundef nonnull align 8 dereferenceable(16) %this) #5 comdat align 2 {
entry:
  %this.addr = alloca ptr, align 8
  store ptr %this, ptr %this.addr, align 8
  %this1 = load ptr, ptr %this.addr, align 8
  %data_ = getelementptr inbounds %"class.google::protobuf::UnknownField", ptr %this1, i32 0, i32 2
  %0 = load i64, ptr %data_, align 8
  ret i64 %0
}

; Function Attrs: mustprogress nounwind uwtable
define linkonce_odr hidden noundef i64 @_ZN6google8protobuf2io17CodedOutputStream12VarintSize32Ej(i32 noundef %value) #5 comdat align 2 {
entry:
  %value.addr = alloca i32, align 4
  %log2value = alloca i32, align 4
  store i32 %value, ptr %value.addr, align 4
  %0 = load i32, ptr %value.addr, align 4
  %or = or i32 %0, 1
  %call = call noundef i32 @_ZN4absl12lts_2023080211countl_zeroIjEENSt9enable_ifIXsr3std11is_unsignedIT_EE5valueEiE4typeES3_(i32 noundef %or) #3
  %sub = sub nsw i32 31, %call
  store i32 %sub, ptr %log2value, align 4
  %1 = load i32, ptr %log2value, align 4
  %mul = mul i32 %1, 9
  %add = add i32 %mul, 73
  %div = udiv i32 %add, 64
  %conv = zext i32 %div to i64
  ret i64 %conv
}

; Function Attrs: mustprogress nounwind uwtable
define linkonce_odr hidden noundef i32 @_ZN6google8protobuf8internal14WireFormatLite7MakeTagEiNS2_8WireTypeE(i32 noundef %field_number, i32 noundef %type) #5 comdat align 2 {
entry:
  %field_number.addr = alloca i32, align 4
  %type.addr = alloca i32, align 4
  store i32 %field_number, ptr %field_number.addr, align 4
  store i32 %type, ptr %type.addr, align 4
  %0 = load i32, ptr %field_number.addr, align 4
  %shl = shl i32 %0, 3
  %1 = load i32, ptr %type.addr, align 4
  %or = or i32 %shl, %1
  ret i32 %or
}

; Function Attrs: mustprogress nounwind uwtable
define linkonce_odr hidden noundef i32 @_ZNK6google8protobuf12UnknownField6numberEv(ptr noundef nonnull align 8 dereferenceable(16) %this) #5 comdat align 2 {
entry:
  %this.addr = alloca ptr, align 8
  store ptr %this, ptr %this.addr, align 8
  %this1 = load ptr, ptr %this.addr, align 8
  %number_ = getelementptr inbounds %"class.google::protobuf::UnknownField", ptr %this1, i32 0, i32 0
  %0 = load i32, ptr %number_, align 8
  ret i32 %0
}

; Function Attrs: mustprogress nounwind uwtable
define linkonce_odr hidden noundef i32 @_ZNK6google8protobuf12UnknownField4typeEv(ptr noundef nonnull align 8 dereferenceable(16) %this) #5 comdat align 2 {
entry:
  %this.addr = alloca ptr, align 8
  store ptr %this, ptr %this.addr, align 8
  %this1 = load ptr, ptr %this.addr, align 8
  %type_ = getelementptr inbounds %"class.google::protobuf::UnknownField", ptr %this1, i32 0, i32 1
  %0 = load i32, ptr %type_, align 4
  ret i32 %0
}

; Function Attrs: mustprogress nounwind uwtable
define linkonce_odr hidden noundef nonnull align 8 dereferenceable(16) ptr @_ZNK6google8protobuf15UnknownFieldSet5fieldEi(ptr noundef nonnull align 8 dereferenceable(24) %this, i32 noundef %index) #5 comdat align 2 {
entry:
  %this.addr = alloca ptr, align 8
  %index.addr = alloca i32, align 4
  store ptr %this, ptr %this.addr, align 8
  store i32 %index, ptr %index.addr, align 4
  %this1 = load ptr, ptr %this.addr, align 8
  %fields_ = getelementptr inbounds %"class.google::protobuf::UnknownFieldSet", ptr %this1, i32 0, i32 0
  %0 = load i32, ptr %index.addr, align 4
  %conv = sext i32 %0 to i64
  %call = call noundef nonnull align 8 dereferenceable(16) ptr @_ZNKSt6vectorIN6google8protobuf12UnknownFieldESaIS2_EEixEm(ptr noundef nonnull align 8 dereferenceable(24) %fields_, i64 noundef %conv) #3
  ret ptr %call
}

; Function Attrs: mustprogress nounwind uwtable
define linkonce_odr hidden noundef i32 @_ZNK6google8protobuf15UnknownFieldSet11field_countEv(ptr noundef nonnull align 8 dereferenceable(24) %this) #5 comdat align 2 {
entry:
  %this.addr = alloca ptr, align 8
  store ptr %this, ptr %this.addr, align 8
  %this1 = load ptr, ptr %this.addr, align 8
  %fields_ = getelementptr inbounds %"class.google::protobuf::UnknownFieldSet", ptr %this1, i32 0, i32 0
  %call = call noundef i64 @_ZNKSt6vectorIN6google8protobuf12UnknownFieldESaIS2_EE4sizeEv(ptr noundef nonnull align 8 dereferenceable(24) %fields_) #3
  %conv = trunc i64 %call to i32
  ret i32 %conv
}

; Function Attrs: mustprogress uwtable
define noundef i64 @_ZN6google8protobuf8internal10WireFormat24ComputeUnknownFieldsSizeERKNS0_15UnknownFieldSetE(ptr noundef nonnull align 8 dereferenceable(24) %unknown_fields) #4 align 2 {
entry:
  %unknown_fields.addr = alloca ptr, align 8
  %size = alloca i64, align 8
  %i = alloca i32, align 4
  %field = alloca ptr, align 8
  store ptr %unknown_fields, ptr %unknown_fields.addr, align 8
  store i64 0, ptr %size, align 8
  store i32 0, ptr %i, align 4
  br label %for.cond

for.cond:                                         ; preds = %for.inc, %entry
  %0 = load i32, ptr %i, align 4
  %1 = load ptr, ptr %unknown_fields.addr, align 8
  %call = call noundef i32 @_ZNK6google8protobuf15UnknownFieldSet11field_countEv(ptr noundef nonnull align 8 dereferenceable(24) %1)
  %cmp = icmp slt i32 %0, %call
  br i1 %cmp, label %for.body, label %for.end

for.body:                                         ; preds = %for.cond
  %2 = load ptr, ptr %unknown_fields.addr, align 8
  %3 = load i32, ptr %i, align 4
  %call1 = call noundef nonnull align 8 dereferenceable(16) ptr @_ZNK6google8protobuf15UnknownFieldSet5fieldEi(ptr noundef nonnull align 8 dereferenceable(24) %2, i32 noundef %3)
  store ptr %call1, ptr %field, align 8
  %4 = load ptr, ptr %field, align 8
  %call2 = call noundef i32 @_ZNK6google8protobuf12UnknownField4typeEv(ptr noundef nonnull align 8 dereferenceable(16) %4)
  switch i32 %call2, label %sw.epilog [
    i32 0, label %sw.bb
    i32 1, label %sw.bb9
    i32 2, label %sw.bb15
    i32 3, label %sw.bb21
    i32 4, label %sw.bb33
  ]

sw.bb:                                            ; preds = %for.body
  %5 = load ptr, ptr %field, align 8
  %call3 = call noundef i32 @_ZNK6google8protobuf12UnknownField6numberEv(ptr noundef nonnull align 8 dereferenceable(16) %5)
  %call4 = call noundef i32 @_ZN6google8protobuf8internal14WireFormatLite7MakeTagEiNS2_8WireTypeE(i32 noundef %call3, i32 noundef 0)
  %call5 = call noundef i64 @_ZN6google8protobuf2io17CodedOutputStream12VarintSize32Ej(i32 noundef %call4)
  %6 = load i64, ptr %size, align 8
  %add = add i64 %6, %call5
  store i64 %add, ptr %size, align 8
  %7 = load ptr, ptr %field, align 8
  %call6 = call noundef i64 @_ZNK6google8protobuf12UnknownField6varintEv(ptr noundef nonnull align 8 dereferenceable(16) %7)
  %call7 = call noundef i64 @_ZN6google8protobuf2io17CodedOutputStream12VarintSize64Em(i64 noundef %call6)
  %8 = load i64, ptr %size, align 8
  %add8 = add i64 %8, %call7
  store i64 %add8, ptr %size, align 8
  br label %sw.epilog

sw.bb9:                                           ; preds = %for.body
  %9 = load ptr, ptr %field, align 8
  %call10 = call noundef i32 @_ZNK6google8protobuf12UnknownField6numberEv(ptr noundef nonnull align 8 dereferenceable(16) %9)
  %call11 = call noundef i32 @_ZN6google8protobuf8internal14WireFormatLite7MakeTagEiNS2_8WireTypeE(i32 noundef %call10, i32 noundef 5)
  %call12 = call noundef i64 @_ZN6google8protobuf2io17CodedOutputStream12VarintSize32Ej(i32 noundef %call11)
  %10 = load i64, ptr %size, align 8
  %add13 = add i64 %10, %call12
  store i64 %add13, ptr %size, align 8
  %11 = load i64, ptr %size, align 8
  %add14 = add i64 %11, 4
  store i64 %add14, ptr %size, align 8
  br label %sw.epilog

sw.bb15:                                          ; preds = %for.body
  %12 = load ptr, ptr %field, align 8
  %call16 = call noundef i32 @_ZNK6google8protobuf12UnknownField6numberEv(ptr noundef nonnull align 8 dereferenceable(16) %12)
  %call17 = call noundef i32 @_ZN6google8protobuf8internal14WireFormatLite7MakeTagEiNS2_8WireTypeE(i32 noundef %call16, i32 noundef 1)
  %call18 = call noundef i64 @_ZN6google8protobuf2io17CodedOutputStream12VarintSize32Ej(i32 noundef %call17)
  %13 = load i64, ptr %size, align 8
  %add19 = add i64 %13, %call18
  store i64 %add19, ptr %size, align 8
  %14 = load i64, ptr %size, align 8
  %add20 = add i64 %14, 8
  store i64 %add20, ptr %size, align 8
  br label %sw.epilog

sw.bb21:                                          ; preds = %for.body
  %15 = load ptr, ptr %field, align 8
  %call22 = call noundef i32 @_ZNK6google8protobuf12UnknownField6numberEv(ptr noundef nonnull align 8 dereferenceable(16) %15)
  %call23 = call noundef i32 @_ZN6google8protobuf8internal14WireFormatLite7MakeTagEiNS2_8WireTypeE(i32 noundef %call22, i32 noundef 2)
  %call24 = call noundef i64 @_ZN6google8protobuf2io17CodedOutputStream12VarintSize32Ej(i32 noundef %call23)
  %16 = load i64, ptr %size, align 8
  %add25 = add i64 %16, %call24
  store i64 %add25, ptr %size, align 8
  %17 = load ptr, ptr %field, align 8
  %call26 = call noundef nonnull align 8 dereferenceable(32) ptr @_ZNK6google8protobuf12UnknownField16length_delimitedB5cxx11Ev(ptr noundef nonnull align 8 dereferenceable(16) %17)
  %call27 = call noundef i64 @_ZNKSt7__cxx1112basic_stringIcSt11char_traitsIcESaIcEE4sizeEv(ptr noundef nonnull align 8 dereferenceable(32) %call26) #3
  %conv = trunc i64 %call27 to i32
  %call28 = call noundef i64 @_ZN6google8protobuf2io17CodedOutputStream12VarintSize32Ej(i32 noundef %conv)
  %18 = load i64, ptr %size, align 8
  %add29 = add i64 %18, %call28
  store i64 %add29, ptr %size, align 8
  %19 = load ptr, ptr %field, align 8
  %call30 = call noundef nonnull align 8 dereferenceable(32) ptr @_ZNK6google8protobuf12UnknownField16length_delimitedB5cxx11Ev(ptr noundef nonnull align 8 dereferenceable(16) %19)
  %call31 = call noundef i64 @_ZNKSt7__cxx1112basic_stringIcSt11char_traitsIcESaIcEE4sizeEv(ptr noundef nonnull align 8 dereferenceable(32) %call30) #3
  %20 = load i64, ptr %size, align 8
  %add32 = add i64 %20, %call31
  store i64 %add32, ptr %size, align 8
  br label %sw.epilog

sw.bb33:                                          ; preds = %for.body
  %21 = load ptr, ptr %field, align 8
  %call34 = call noundef i32 @_ZNK6google8protobuf12UnknownField6numberEv(ptr noundef nonnull align 8 dereferenceable(16) %21)
  %call35 = call noundef i32 @_ZN6google8protobuf8internal14WireFormatLite7MakeTagEiNS2_8WireTypeE(i32 noundef %call34, i32 noundef 3)
  %call36 = call noundef i64 @_ZN6google8protobuf2io17CodedOutputStream12VarintSize32Ej(i32 noundef %call35)
  %22 = load i64, ptr %size, align 8
  %add37 = add i64 %22, %call36
  store i64 %add37, ptr %size, align 8
  %23 = load ptr, ptr %field, align 8
  %call38 = call noundef nonnull align 8 dereferenceable(24) ptr @_ZNK6google8protobuf12UnknownField5groupEv(ptr noundef nonnull align 8 dereferenceable(16) %23)
  %call39 = call noundef i64 @_ZN6google8protobuf8internal10WireFormat24ComputeUnknownFieldsSizeERKNS0_15UnknownFieldSetE(ptr noundef nonnull align 8 dereferenceable(24) %call38)
  %24 = load i64, ptr %size, align 8
  %add40 = add i64 %24, %call39
  store i64 %add40, ptr %size, align 8
  %25 = load ptr, ptr %field, align 8
  %call41 = call noundef i32 @_ZNK6google8protobuf12UnknownField6numberEv(ptr noundef nonnull align 8 dereferenceable(16) %25)
  %call42 = call noundef i32 @_ZN6google8protobuf8internal14WireFormatLite7MakeTagEiNS2_8WireTypeE(i32 noundef %call41, i32 noundef 4)
  %call43 = call noundef i64 @_ZN6google8protobuf2io17CodedOutputStream12VarintSize32Ej(i32 noundef %call42)
  %26 = load i64, ptr %size, align 8
  %add44 = add i64 %26, %call43
  store i64 %add44, ptr %size, align 8
  br label %sw.epilog

sw.epilog:                                        ; preds = %sw.bb33, %sw.bb21, %sw.bb15, %sw.bb9, %sw.bb, %for.body
  br label %for.inc

for.inc:                                          ; preds = %sw.epilog
  %27 = load i32, ptr %i, align 4
  %inc = add nsw i32 %27, 1
  store i32 %inc, ptr %i, align 4
  br label %for.cond, !llvm.loop !10

for.end:                                          ; preds = %for.cond
  %28 = load i64, ptr %size, align 8
  ret i64 %28
}