; Function Attrs: mustprogress nounwind uwtable
define noundef i64 @_ZN6google8protobuf8internal10WireFormat24ComputeUnknownFieldsSizeERKNS0_15UnknownFieldSetE(ptr noundef nonnull readonly align 8 captures(none) dereferenceable(24) %unknown_fields) local_unnamed_addr #4 align 2 personality ptr @__gxx_personality_v0 {
entry:
  %_M_finish.i.i = getelementptr inbounds nuw i8, ptr %unknown_fields, i64 8
  %0 = load ptr, ptr %_M_finish.i.i, align 8
  %1 = load ptr, ptr %unknown_fields, align 8
  %sub.ptr.lhs.cast.i.i82 = ptrtoint ptr %0 to i64
  %sub.ptr.rhs.cast.i.i83 = ptrtoint ptr %1 to i64
  %sub.ptr.sub.i.i84 = sub i64 %sub.ptr.lhs.cast.i.i82, %sub.ptr.rhs.cast.i.i83
  %sub.ptr.div.i.i85 = lshr exact i64 %sub.ptr.sub.i.i84, 4
  %conv.i86 = trunc i64 %sub.ptr.div.i.i85 to i32
  %cmp87 = icmp sgt i32 %conv.i86, 0
  br i1 %cmp87, label %for.body, label %for.end

for.body:                                         ; preds = %entry, %for.inc
  %indvars.iv = phi i64 [ %indvars.iv.next, %for.inc ], [ 0, %entry ]
  %2 = phi ptr [ %23, %for.inc ], [ %1, %entry ]
  %size.089 = phi i64 [ %size.1, %for.inc ], [ 0, %entry ]
  %add.ptr.i.i = getelementptr inbounds nuw %"class.google::protobuf::UnknownField", ptr %2, i64 %indvars.iv
  %type_.i = getelementptr inbounds nuw i8, ptr %add.ptr.i.i, i64 4
  %3 = load i32, ptr %type_.i, align 4
  switch i32 %3, label %for.inc [
    i32 0, label %sw.bb
    i32 1, label %sw.bb9
    i32 2, label %sw.bb15
    i32 3, label %sw.bb21
    i32 4, label %sw.bb33
  ]

sw.bb:                                            ; preds = %for.body
  %4 = load i32, ptr %add.ptr.i.i, align 8
  %shl.i = shl i32 %4, 3
  %or.i = or disjoint i32 %shl.i, 1
  %5 = tail call noundef range(i32 0, 33) i32 @llvm.ctlz.i32(i32 %or.i, i1 true)
  %sub.i = xor i32 %5, 31
  %mul.i = mul nuw nsw i32 %sub.i, 9
  %add.i = add nuw nsw i32 %mul.i, 73
  %div1.i = lshr i32 %add.i, 6
  %conv.i27 = zext nneg i32 %div1.i to i64
  %data_.i = getelementptr inbounds nuw i8, ptr %add.ptr.i.i, i64 8
  %6 = load i64, ptr %data_.i, align 8
  %or.i28 = or i64 %6, 1
  %7 = tail call range(i64 0, 65) i64 @llvm.ctlz.i64(i64 %or.i28, i1 true)
  %sub.i29 = xor i64 %7, 63
  %mul.i30 = mul nuw nsw i64 %sub.i29, 9
  %add.i31 = add nuw nsw i64 %mul.i30, 73
  %div1.i32 = lshr i64 %add.i31, 6
  %add = add i64 %div1.i32, %size.089
  %add8 = add i64 %add, %conv.i27
  br label %for.inc

sw.bb9:                                           ; preds = %for.body
  %8 = load i32, ptr %add.ptr.i.i, align 8
  %shl.i33 = shl i32 %8, 3
  %or.i34 = or disjoint i32 %shl.i33, 5
  %9 = tail call noundef range(i32 0, 33) i32 @llvm.ctlz.i32(i32 %or.i34, i1 true)
  %sub.i36 = xor i32 %9, 31
  %mul.i37 = mul nuw nsw i32 %sub.i36, 9
  %add.i38 = add nuw nsw i32 %mul.i37, 73
  %div1.i39 = lshr i32 %add.i38, 6
  %conv.i40 = zext nneg i32 %div1.i39 to i64
  %add13 = add i64 %size.089, 4
  %add14 = add i64 %add13, %conv.i40
  br label %for.inc

sw.bb15:                                          ; preds = %for.body
  %10 = load i32, ptr %add.ptr.i.i, align 8
  %shl.i41 = shl i32 %10, 3
  %or.i42 = or disjoint i32 %shl.i41, 1
  %11 = tail call noundef range(i32 0, 33) i32 @llvm.ctlz.i32(i32 %or.i42, i1 true)
  %sub.i44 = xor i32 %11, 31
  %mul.i45 = mul nuw nsw i32 %sub.i44, 9
  %add.i46 = add nuw nsw i32 %mul.i45, 73
  %div1.i47 = lshr i32 %add.i46, 6
  %conv.i48 = zext nneg i32 %div1.i47 to i64
  %add19 = add i64 %size.089, 8
  %add20 = add i64 %add19, %conv.i48
  br label %for.inc

sw.bb21:                                          ; preds = %for.body
  %12 = load i32, ptr %add.ptr.i.i, align 8
  %shl.i49 = shl i32 %12, 3
  %or.i51 = or disjoint i32 %shl.i49, 3
  %13 = tail call noundef range(i32 0, 33) i32 @llvm.ctlz.i32(i32 %or.i51, i1 true)
  %sub.i52 = xor i32 %13, 31
  %mul.i53 = mul nuw nsw i32 %sub.i52, 9
  %add.i54 = add nuw nsw i32 %mul.i53, 73
  %div1.i55 = lshr i32 %add.i54, 6
  %conv.i56 = zext nneg i32 %div1.i55 to i64
  %data_.i57 = getelementptr inbounds nuw i8, ptr %add.ptr.i.i, i64 8
  %14 = load ptr, ptr %data_.i57, align 8
  %call27 = tail call noundef i64 @_ZNKSt7__cxx1112basic_stringIcSt11char_traitsIcESaIcEE4sizeEv(ptr noundef nonnull align 8 dereferenceable(32) %14) #23
  %conv = trunc i64 %call27 to i32
  %or.i58 = or i32 %conv, 1
  %15 = tail call noundef range(i32 0, 33) i32 @llvm.ctlz.i32(i32 %or.i58, i1 true)
  %sub.i59 = xor i32 %15, 31
  %mul.i60 = mul nuw nsw i32 %sub.i59, 9
  %add.i61 = add nuw nsw i32 %mul.i60, 73
  %div1.i62 = lshr i32 %add.i61, 6
  %conv.i63 = zext nneg i32 %div1.i62 to i64
  %16 = load ptr, ptr %data_.i57, align 8
  %call31 = tail call noundef i64 @_ZNKSt7__cxx1112basic_stringIcSt11char_traitsIcESaIcEE4sizeEv(ptr noundef nonnull align 8 dereferenceable(32) %16) #23
  %add25 = add i64 %call31, %size.089
  %add29 = add i64 %add25, %conv.i56
  %add32 = add i64 %add29, %conv.i63
  br label %for.inc

sw.bb33:                                          ; preds = %for.body
  %17 = load i32, ptr %add.ptr.i.i, align 8
  %shl.i65 = shl i32 %17, 3
  %or.i66 = or disjoint i32 %shl.i65, 3
  %18 = tail call noundef range(i32 0, 33) i32 @llvm.ctlz.i32(i32 %or.i66, i1 true)
  %sub.i68 = xor i32 %18, 31
  %mul.i69 = mul nuw nsw i32 %sub.i68, 9
  %add.i70 = add nuw nsw i32 %mul.i69, 73
  %div1.i71 = lshr i32 %add.i70, 6
  %conv.i72 = zext nneg i32 %div1.i71 to i64
  %data_.i73 = getelementptr inbounds nuw i8, ptr %add.ptr.i.i, i64 8
  %19 = load ptr, ptr %data_.i73, align 8
  %call39 = tail call noundef i64 @_ZN6google8protobuf8internal10WireFormat24ComputeUnknownFieldsSizeERKNS0_15UnknownFieldSetE(ptr noundef nonnull align 8 dereferenceable(24) %19)
  %20 = load i32, ptr %add.ptr.i.i, align 8
  %shl.i74 = shl i32 %20, 3
  %or.i76 = or disjoint i32 %shl.i74, 5
  %21 = tail call noundef range(i32 0, 33) i32 @llvm.ctlz.i32(i32 %or.i76, i1 true)
  %sub.i77 = xor i32 %21, 31
  %mul.i78 = mul nuw nsw i32 %sub.i77, 9
  %add.i79 = add nuw nsw i32 %mul.i78, 73
  %div1.i80 = lshr i32 %add.i79, 6
  %conv.i81 = zext nneg i32 %div1.i80 to i64
  %add37 = add i64 %call39, %size.089
  %add40 = add i64 %add37, %conv.i72
  %add44 = add i64 %add40, %conv.i81
  br label %for.inc

for.inc:                                          ; preds = %for.body, %sw.bb, %sw.bb9, %sw.bb15, %sw.bb21, %sw.bb33
  %size.1 = phi i64 [ %size.089, %for.body ], [ %add44, %sw.bb33 ], [ %add32, %sw.bb21 ], [ %add20, %sw.bb15 ], [ %add14, %sw.bb9 ], [ %add8, %sw.bb ]
  %indvars.iv.next = add nuw nsw i64 %indvars.iv, 1
  %22 = load ptr, ptr %_M_finish.i.i, align 8
  %23 = load ptr, ptr %unknown_fields, align 8
  %sub.ptr.lhs.cast.i.i = ptrtoint ptr %22 to i64
  %sub.ptr.rhs.cast.i.i = ptrtoint ptr %23 to i64
  %sub.ptr.sub.i.i = sub i64 %sub.ptr.lhs.cast.i.i, %sub.ptr.rhs.cast.i.i
  %sext = shl i64 %sub.ptr.sub.i.i, 28
  %24 = ashr i64 %sext, 32
  %cmp = icmp slt i64 %indvars.iv.next, %24
  br i1 %cmp, label %for.body, label %for.end, !llvm.loop !11

for.end:                                          ; preds = %for.inc, %entry
  %size.0.lcssa = phi i64 [ 0, %entry ], [ %size.1, %for.inc ]
  ret i64 %size.0.lcssa
}